; Function Attrs: mustprogress nounwind uwtable
define dso_local void @_ZN5clang13ASTDeclReader17VisitCapturedDeclEPNS_12CapturedDeclE(ptr nocapture noundef nonnull align 8 dereferenceable(89) %0, ptr noundef %1) local_unnamed_addr #1 align 2 {
  tail call void @_ZN5clang13ASTDeclReader9VisitDeclEPNS_4DeclE(ptr noundef nonnull align 8 dereferenceable(89) %0, ptr noundef %1)
  %3 = getelementptr inbounds nuw i8, ptr %0, i64 16
  %4 = load ptr, ptr %3, align 8
  %5 = getelementptr inbounds nuw i8, ptr %4, i64 32
  %6 = getelementptr inbounds nuw i8, ptr %4, i64 24
  %7 = load i32, ptr %6, align 8
  %8 = add i32 %7, 1
  store i32 %8, ptr %6, align 8
  %9 = zext i32 %7 to i64
  %10 = load ptr, ptr %5, align 8
  %11 = getelementptr inbounds i64, ptr %10, i64 %9
  %12 = load i64, ptr %11, align 8
  %13 = trunc i64 %12 to i32
  %14 = load ptr, ptr %3, align 8
  %15 = getelementptr inbounds nuw i8, ptr %14, i64 32
  %16 = getelementptr inbounds nuw i8, ptr %14, i64 24
  %17 = load i32, ptr %16, align 8
  %18 = add i32 %17, 1
  store i32 %18, ptr %16, align 8
  %19 = zext i32 %17 to i64
  %20 = load ptr, ptr %15, align 8
  %21 = getelementptr inbounds i64, ptr %20, i64 %19
  %22 = load i64, ptr %21, align 8
  %23 = icmp ne i64 %22, 0
  tail call void @_ZN5clang12CapturedDecl10setNothrowEb(ptr noundef nonnull align 8 dereferenceable(88) %1, i1 noundef zeroext %23) #26
  %24 = getelementptr inbounds nuw i8, ptr %1, i64 72
  %25 = load i32, ptr %24, align 8
  %.not12 = icmp eq i32 %25, 0
  br i1 %.not12, label %._crit_edge, label %.lr.ph

.lr.ph:                                           ; preds = %2
  %26 = getelementptr inbounds i8, ptr %1, i64 88
  %27 = getelementptr inbounds nuw i8, ptr %1, i64 76
  %28 = and i64 %12, 4294967295
  br label %29

29:                                               ; preds = %.lr.ph, %40
  %indvars.iv = phi i64 [ 0, %.lr.ph ], [ %indvars.iv.next, %40 ]
  %.not = icmp eq i64 %indvars.iv, %28
  %30 = load ptr, ptr %3, align 8
  %31 = getelementptr inbounds nuw i8, ptr %30, i64 8
  %32 = load ptr, ptr %31, align 8
  %33 = getelementptr inbounds nuw i8, ptr %30, i64 16
  %34 = load ptr, ptr %33, align 8
  %35 = getelementptr inbounds nuw i8, ptr %30, i64 32
  %36 = getelementptr inbounds nuw i8, ptr %30, i64 24
  %37 = tail call i64 @_ZN5clang9ASTReader10ReadDeclIDERNS_13serialization10ModuleFileERKN4llvm15SmallVectorImplImEERj(ptr noundef nonnull align 8 dereferenceable(15968) %32, ptr noundef nonnull align 8 dereferenceable(3464) %34, ptr noundef nonnull align 8 dereferenceable(16) %35, ptr noundef nonnull align 4 dereferenceable(4) %36) #26
  %38 = tail call noundef ptr @_ZN5clang9ASTReader7GetDeclENS_12GlobalDeclIDE(ptr noundef nonnull align 8 dereferenceable(15968) %32, i64 %37) #26
  br i1 %.not, label %39, label %40

39:                                               ; preds = %29
  store i32 %13, ptr %27, align 4
  br label %40

40:                                               ; preds = %29, %39
  %indvars.iv.pn = phi i64 [ %28, %39 ], [ %indvars.iv, %29 ]
  %.sink = getelementptr inbounds ptr, ptr %26, i64 %indvars.iv.pn
  store ptr %38, ptr %.sink, align 8
  %indvars.iv.next = add nuw nsw i64 %indvars.iv, 1
  %41 = load i32, ptr %24, align 8
  %42 = zext i32 %41 to i64
  %43 = icmp ult i64 %indvars.iv.next, %42
  br i1 %43, label %29, label %._crit_edge, !llvm.loop !133

._crit_edge:                                      ; preds = %40, %2
  ret void
}